; Function Attrs: mustprogress uwtable
define dso_local void @_ZNK24cmComputeLinkInformation17FeatureDescriptor16GetDecoratedItemERKNSt7__cxx1112basic_stringIcSt11char_traitsIcESaIcEEENS_10ItemIsPathE(ptr dead_on_unwind noalias writable sret(%"class.std::__cxx11::basic_string") align 8 %0, ptr noundef nonnull align 8 dereferenceable(168) %1, ptr noundef nonnull align 8 dereferenceable(32) %2, i32 noundef %3) local_unnamed_addr #3 align 2 personality ptr @__gxx_personality_v0 {
  %5 = alloca %"class.std::__cxx11::basic_string", align 8
  %6 = alloca %"class.(anonymous namespace)::FeaturePlaceHolderExpander", align 8
  %7 = icmp eq i32 %3, 1
  %.v = select i1 %7, i64 104, i64 136
  %8 = getelementptr inbounds i8, ptr %1, i64 %.v
  call void @_ZNSt7__cxx1112basic_stringIcSt11char_traitsIcESaIcEEC1ERKS4_(ptr noundef nonnull align 8 dereferenceable(32) %5, ptr noundef nonnull align 8 dereferenceable(32) %8)
  store ptr getelementptr inbounds ({ [5 x ptr] }, ptr @_ZTVN12_GLOBAL__N_126FeaturePlaceHolderExpanderE, i64 0, i32 0, i64 2), ptr %6, align 8
  %9 = getelementptr inbounds i8, ptr %6, i64 8
  store ptr %2, ptr %9, align 8
  %10 = getelementptr inbounds i8, ptr %6, i64 16
  store ptr %2, ptr %10, align 8
  %11 = getelementptr inbounds i8, ptr %6, i64 24
  store ptr %2, ptr %11, align 8
  %12 = invoke noundef nonnull align 8 dereferenceable(32) ptr @_ZN21cmPlaceholderExpander15ExpandVariablesERNSt7__cxx1112basic_stringIcSt11char_traitsIcESaIcEEE(ptr noundef nonnull align 8 dereferenceable(8) %6, ptr noundef nonnull align 8 dereferenceable(32) %5)
          to label %13 unwind label %15

13:                                               ; preds = %4
  invoke void @_ZNSt7__cxx1112basic_stringIcSt11char_traitsIcESaIcEEC1ERKS4_(ptr noundef nonnull align 8 dereferenceable(32) %0, ptr noundef nonnull align 8 dereferenceable(32) %12)
          to label %14 unwind label %15

14:                                               ; preds = %13
  call void @_ZNSt7__cxx1112basic_stringIcSt11char_traitsIcESaIcEED1Ev(ptr noundef nonnull align 8 dereferenceable(32) %5) #19
  ret void

15:                                               ; preds = %13, %4
  %16 = landingpad { ptr, i32 }
          cleanup
  call void @_ZNSt7__cxx1112basic_stringIcSt11char_traitsIcESaIcEED1Ev(ptr noundef nonnull align 8 dereferenceable(32) %5) #19
  resume { ptr, i32 } %16
}